target datalayout = "e-m:e-p270:32:32-p271:32:32-p272:64:64-i64:64-i128:128-f80:128-n8:16:32:64-S128"
target triple = "x86_64-pc-linux-gnu"

@.str = private unnamed_addr constant [69 x i8] c"Argument number specifier must be greater than zero and less than %d\00", align 1

; Function Attrs: inlinehint nounwind uwtable
define internal i32 @php_sprintf_getnumber(ptr noundef %0, ptr noundef %1) #3 {
  %3 = alloca i32, align 4
  %4 = alloca ptr, align 8
  %5 = alloca ptr, align 8
  %6 = alloca ptr, align 8
  %7 = alloca i64, align 8
  %8 = alloca i64, align 8
  %9 = alloca i32, align 4
  store ptr %0, ptr %4, align 8, !tbaa !4
  store ptr %1, ptr %5, align 8, !tbaa !9
  call void @llvm.lifetime.start.p0(i64 8, ptr %6) #16
  call void @llvm.lifetime.start.p0(i64 8, ptr %7) #16
  %10 = load ptr, ptr %4, align 8, !tbaa !4
  %11 = load ptr, ptr %10, align 8, !tbaa !11
  %12 = call i64 @strtoll(ptr noundef %11, ptr noundef %6, i32 noundef 10) #16
  store i64 %12, ptr %7, align 8, !tbaa !20
  call void @llvm.lifetime.start.p0(i64 8, ptr %8) #16
  %13 = load ptr, ptr %6, align 8, !tbaa !11
  %14 = icmp ne ptr %13, null
  br i1 %14, label %15, label %28

15:                                               ; preds = %2
  %16 = load ptr, ptr %6, align 8, !tbaa !11
  %17 = load ptr, ptr %4, align 8, !tbaa !4
  %18 = load ptr, ptr %17, align 8, !tbaa !11
  %19 = ptrtoint ptr %16 to i64
  %20 = ptrtoint ptr %18 to i64
  %21 = sub i64 %19, %20
  store i64 %21, ptr %8, align 8, !tbaa !20
  %22 = load i64, ptr %8, align 8, !tbaa !20
  %23 = load ptr, ptr %5, align 8, !tbaa !9
  %24 = load i64, ptr %23, align 8, !tbaa !20
  %25 = sub i64 %24, %22
  store i64 %25, ptr %23, align 8, !tbaa !20
  %26 = load ptr, ptr %6, align 8, !tbaa !11
  %27 = load ptr, ptr %4, align 8, !tbaa !4
  store ptr %26, ptr %27, align 8, !tbaa !11
  br label %28

28:                                               ; preds = %15, %2
  %29 = load i64, ptr %7, align 8, !tbaa !20
  %30 = icmp sge i64 %29, 2147483647
  br i1 %30, label %34, label %31

31:                                               ; preds = %28
  %32 = load i64, ptr %7, align 8, !tbaa !20
  %33 = icmp slt i64 %32, 0
  br i1 %33, label %34, label %35

34:                                               ; preds = %31, %28
  store i32 -1, ptr %3, align 4
  store i32 1, ptr %9, align 4
  br label %38

35:                                               ; preds = %31
  %36 = load i64, ptr %7, align 8, !tbaa !20
  %37 = trunc i64 %36 to i32
  store i32 %37, ptr %3, align 4
  store i32 1, ptr %9, align 4
  br label %38

38:                                               ; preds = %35, %34
  call void @llvm.lifetime.end.p0(i64 8, ptr %8) #16
  call void @llvm.lifetime.end.p0(i64 8, ptr %7) #16
  call void @llvm.lifetime.end.p0(i64 8, ptr %6) #16
  %39 = load i32, ptr %3, align 4
  ret i32 %39
}

; Function Attrs: nounwind uwtable
define hidden i32 @php_sprintf_get_argnum(ptr noundef %0, ptr noundef %1) #0 {
  %3 = alloca i32, align 4
  %4 = alloca ptr, align 8
  %5 = alloca ptr, align 8
  %6 = alloca ptr, align 8
  %7 = alloca i32, align 4
  %8 = alloca i32, align 4
  store ptr %0, ptr %4, align 8, !tbaa !4
  store ptr %1, ptr %5, align 8, !tbaa !9
  call void @llvm.lifetime.start.p0(i64 8, ptr %6) #16
  %9 = load ptr, ptr %4, align 8, !tbaa !4
  %10 = load ptr, ptr %9, align 8, !tbaa !11
  store ptr %10, ptr %6, align 8, !tbaa !11
  br label %11

11:                                               ; preds = %23, %2
  %12 = call ptr @__ctype_b_loc() #17
  %13 = load ptr, ptr %12, align 8, !tbaa !13
  %14 = load ptr, ptr %6, align 8, !tbaa !11
  %15 = load i8, ptr %14, align 1, !tbaa !15
  %16 = sext i8 %15 to i32
  %17 = sext i32 %16 to i64
  %18 = getelementptr inbounds i16, ptr %13, i64 %17
  %19 = load i16, ptr %18, align 2, !tbaa !16
  %20 = zext i16 %19 to i32
  %21 = and i32 %20, 2048
  %22 = icmp ne i32 %21, 0
  br i1 %22, label %23, label %26

23:                                               ; preds = %11
  %24 = load ptr, ptr %6, align 8, !tbaa !11
  %25 = getelementptr inbounds nuw i8, ptr %24, i32 1
  store ptr %25, ptr %6, align 8, !tbaa !11
  br label %11

26:                                               ; preds = %11
  %27 = load ptr, ptr %6, align 8, !tbaa !11
  %28 = load i8, ptr %27, align 1, !tbaa !15
  %29 = sext i8 %28 to i32
  %30 = icmp ne i32 %29, 36
  br i1 %30, label %31, label %32

31:                                               ; preds = %26
  store i32 -1, ptr %3, align 4
  store i32 1, ptr %7, align 4
  br label %49

32:                                               ; preds = %26
  call void @llvm.lifetime.start.p0(i64 4, ptr %8) #16
  %33 = load ptr, ptr %4, align 8, !tbaa !4
  %34 = load ptr, ptr %5, align 8, !tbaa !9
  %35 = call i32 @php_sprintf_getnumber(ptr noundef %33, ptr noundef %34)
  store i32 %35, ptr %8, align 4, !tbaa !18
  %36 = load i32, ptr %8, align 4, !tbaa !18
  %37 = icmp sle i32 %36, 0
  br i1 %37, label %38, label %39

38:                                               ; preds = %32
  call void (ptr, ...) @zend_value_error(ptr noundef @.str, i32 noundef 2147483647)
  store i32 -2, ptr %3, align 4
  store i32 1, ptr %7, align 4
  br label %48

39:                                               ; preds = %32
  %40 = load ptr, ptr %4, align 8, !tbaa !4
  %41 = load ptr, ptr %40, align 8, !tbaa !11
  %42 = getelementptr inbounds nuw i8, ptr %41, i32 1
  store ptr %42, ptr %40, align 8, !tbaa !11
  %43 = load ptr, ptr %5, align 8, !tbaa !9
  %44 = load i64, ptr %43, align 8, !tbaa !20
  %45 = add i64 %44, -1
  store i64 %45, ptr %43, align 8, !tbaa !20
  %46 = load i32, ptr %8, align 4, !tbaa !18
  %47 = sub nsw i32 %46, 1
  store i32 %47, ptr %3, align 4
  store i32 1, ptr %7, align 4
  br label %48

48:                                               ; preds = %39, %38
  call void @llvm.lifetime.end.p0(i64 4, ptr %8) #16
  br label %49

49:                                               ; preds = %48, %31
  call void @llvm.lifetime.end.p0(i64 8, ptr %6) #16
  %50 = load i32, ptr %3, align 4
  ret i32 %50
}