; Function Attrs: nounwind uwtable
define hidden range(i32 -2, 2147483647) i32 @php_sprintf_get_argnum(ptr noundef captures(none) %0, ptr noundef captures(none) %1) local_unnamed_addr #0 {
  %3 = alloca ptr, align 8
  %4 = load ptr, ptr %0, align 8, !tbaa !4
  %5 = tail call ptr @__ctype_b_loc() #15
  %6 = load ptr, ptr %5, align 8, !tbaa !9
  br label %7

7:                                                ; preds = %7, %2
  %.010 = phi ptr [ %4, %2 ], [ %13, %7 ]
  %8 = load i8, ptr %.010, align 1, !tbaa !11
  %9 = sext i8 %8 to i64
  %10 = getelementptr inbounds i16, ptr %6, i64 %9
  %11 = load i16, ptr %10, align 2, !tbaa !12
  %12 = and i16 %11, 2048
  %.not = icmp eq i16 %12, 0
  %13 = getelementptr inbounds nuw i8, ptr %.010, i64 1
  br i1 %.not, label %14, label %7

14:                                               ; preds = %7
  %.not12 = icmp eq i8 %8, 36
  br i1 %.not12, label %15, label %33

15:                                               ; preds = %14
  call void @llvm.lifetime.start.p0(i64 8, ptr nonnull %3) #16
  %16 = call i64 @strtoll(ptr noundef %4, ptr noundef nonnull %3, i32 noundef 10) #16
  %17 = load ptr, ptr %3, align 8, !tbaa !4
  %.not.i = icmp eq ptr %17, null
  br i1 %.not.i, label %php_sprintf_getnumber.exit, label %18

18:                                               ; preds = %15
  %19 = load ptr, ptr %0, align 8, !tbaa !4
  %20 = ptrtoint ptr %17 to i64
  %21 = ptrtoint ptr %19 to i64
  %.neg.i = sub i64 %21, %20
  %22 = load i64, ptr %1, align 8, !tbaa !14
  %23 = add i64 %.neg.i, %22
  store i64 %23, ptr %1, align 8, !tbaa !14
  store ptr %17, ptr %0, align 8, !tbaa !4
  br label %php_sprintf_getnumber.exit

php_sprintf_getnumber.exit:                       ; preds = %15, %18
  %or.cond.i = icmp ugt i64 %16, 2147483646
  %24 = trunc nuw nsw i64 %16 to i32
  %.0.i = select i1 %or.cond.i, i32 -1, i32 %24
  call void @llvm.lifetime.end.p0(i64 8, ptr nonnull %3) #16
  %25 = icmp slt i32 %.0.i, 1
  br i1 %25, label %26, label %27

26:                                               ; preds = %php_sprintf_getnumber.exit
  tail call void (ptr, ...) @zend_value_error(ptr noundef nonnull @.str, i32 noundef 2147483647) #16
  br label %33

27:                                               ; preds = %php_sprintf_getnumber.exit
  %28 = load ptr, ptr %0, align 8, !tbaa !4
  %29 = getelementptr inbounds nuw i8, ptr %28, i64 1
  store ptr %29, ptr %0, align 8, !tbaa !4
  %30 = load i64, ptr %1, align 8, !tbaa !14
  %31 = add i64 %30, -1
  store i64 %31, ptr %1, align 8, !tbaa !14
  %32 = add nsw i32 %.0.i, -1
  br label %33

33:                                               ; preds = %26, %27, %14
  %.0 = phi i32 [ -1, %14 ], [ -2, %26 ], [ %32, %27 ]
  ret i32 %.0
}